; ModuleID = '50/39.c'
source_filename = "50/39.c"
target datalayout = "e-m:e-p270:32:32-p271:32:32-p272:64:64-i64:64-f80:128-n8:16:32:64-S128"
target triple = "x86_64-pc-linux-gnu"

@.str = private unnamed_addr constant [3 x i8] c"%d\00", align 1
@__const.main.month = private unnamed_addr constant [12 x i32] [i32 31, i32 28, i32 31, i32 30, i32 31, i32 30, i32 31, i32 31, i32 30, i32 31, i32 30, i32 31], align 16
@.str.1 = private unnamed_addr constant [3 x i8] c"1\0A\00", align 1
@.str.2 = private unnamed_addr constant [4 x i8] c"%d\0A\00", align 1

; Function Attrs: noinline nounwind uwtable
define dso_local i32 @main() #0 {
  %1 = alloca i32, align 4
  %2 = alloca i32, align 4
  %3 = alloca i32, align 4
  %4 = alloca [12 x i32], align 16
  %5 = alloca i32, align 4
  %6 = alloca i32, align 4
  %7 = alloca i32, align 4
  %8 = alloca [12 x i32], align 16
  store i32 0, i32* %1, align 4
  %9 = call i32 (i8*, ...) @__isoc99_scanf(i8* getelementptr inbounds ([3 x i8], [3 x i8]* @.str, i64 0, i64 0), i32* %2)
  %10 = bitcast [12 x i32]* %4 to i8*
  call void @llvm.memcpy.p0i8.p0i8.i64(i8* align 16 %10, i8* align 16 bitcast ([12 x i32]* @__const.main.month to i8*), i64 48, i1 false)
  %11 = load i32, i32* %2, align 4
  %12 = add nsw i32 6, %11
  %13 = sub nsw i32 %12, 1
  store i32 %13, i32* %5, align 4
  %14 = load i32, i32* %5, align 4
  %15 = icmp sgt i32 %14, 7
  br i1 %15, label %16, label %19

16:                                               ; preds = %0
  %17 = load i32, i32* %5, align 4
  %18 = sub nsw i32 %17, 7
  store i32 %18, i32* %5, align 4
  br label %19

19:                                               ; preds = %16, %0
  %20 = load i32, i32* %5, align 4
  %21 = icmp eq i32 %20, 5
  br i1 %21, label %22, label %24

22:                                               ; preds = %19
  %23 = call i32 (i8*, ...) @printf(i8* getelementptr inbounds ([3 x i8], [3 x i8]* @.str.1, i64 0, i64 0))
  br label %24

24:                                               ; preds = %22, %19
  %25 = bitcast [12 x i32]* %8 to i8*
  call void @llvm.memset.p0i8.i64(i8* align 16 %25, i8 0, i64 48, i1 false)
  store i32 1, i32* %6, align 4
  br label %26

26:                                               ; preds = %74, %24
  %27 = load i32, i32* %6, align 4
  %28 = icmp slt i32 %27, 12
  br i1 %28, label %29, label %77

29:                                               ; preds = %26
  store i32 0, i32* %7, align 4
  br label %30

30:                                               ; preds = %44, %29
  %31 = load i32, i32* %7, align 4
  %32 = load i32, i32* %6, align 4
  %33 = icmp slt i32 %31, %32
  br i1 %33, label %34, label %47

34:                                               ; preds = %30
  %35 = load i32, i32* %7, align 4
  %36 = sext i32 %35 to i64
  %37 = getelementptr inbounds [12 x i32], [12 x i32]* %4, i64 0, i64 %36
  %38 = load i32, i32* %37, align 4
  %39 = load i32, i32* %6, align 4
  %40 = sext i32 %39 to i64
  %41 = getelementptr inbounds [12 x i32], [12 x i32]* %8, i64 0, i64 %40
  %42 = load i32, i32* %41, align 4
  %43 = add nsw i32 %42, %38
  store i32 %43, i32* %41, align 4
  br label %44

44:                                               ; preds = %34
  %45 = load i32, i32* %7, align 4
  %46 = add nsw i32 %45, 1
  store i32 %46, i32* %7, align 4
  br label %30

47:                                               ; preds = %30
  %48 = load i32, i32* %6, align 4
  %49 = sext i32 %48 to i64
  %50 = getelementptr inbounds [12 x i32], [12 x i32]* %8, i64 0, i64 %49
  %51 = load i32, i32* %50, align 4
  %52 = add nsw i32 %51, 13
  store i32 %52, i32* %50, align 4
  %53 = load i32, i32* %6, align 4
  %54 = sext i32 %53 to i64
  %55 = getelementptr inbounds [12 x i32], [12 x i32]* %8, i64 0, i64 %54
  %56 = load i32, i32* %55, align 4
  %57 = srem i32 %56, 7
  %58 = load i32, i32* %2, align 4
  %59 = add nsw i32 %57, %58
  %60 = sub nsw i32 %59, 1
  store i32 %60, i32* %3, align 4
  %61 = load i32, i32* %3, align 4
  %62 = icmp sgt i32 %61, 7
  br i1 %62, label %63, label %66

63:                                               ; preds = %47
  %64 = load i32, i32* %3, align 4
  %65 = sub nsw i32 %64, 7
  store i32 %65, i32* %3, align 4
  br label %66

66:                                               ; preds = %63, %47
  %67 = load i32, i32* %3, align 4
  %68 = icmp eq i32 %67, 5
  br i1 %68, label %69, label %73

69:                                               ; preds = %66
  %70 = load i32, i32* %6, align 4
  %71 = add nsw i32 %70, 1
  %72 = call i32 (i8*, ...) @printf(i8* getelementptr inbounds ([4 x i8], [4 x i8]* @.str.2, i64 0, i64 0), i32 %71)
  br label %73

73:                                               ; preds = %69, %66
  br label %74

74:                                               ; preds = %73
  %75 = load i32, i32* %6, align 4
  %76 = add nsw i32 %75, 1
  store i32 %76, i32* %6, align 4
  br label %26

77:                                               ; preds = %26
  ret i32 0
}

declare dso_local i32 @__isoc99_scanf(i8*, ...) #1

; Function Attrs: argmemonly nounwind willreturn
declare void @llvm.memcpy.p0i8.p0i8.i64(i8* noalias nocapture writeonly, i8* noalias nocapture readonly, i64, i1 immarg) #2

declare dso_local i32 @printf(i8*, ...) #1

; Function Attrs: argmemonly nounwind willreturn
declare void @llvm.memset.p0i8.i64(i8* nocapture writeonly, i8, i64, i1 immarg) #2


!llvm.module.flags = !{!0}
!llvm.ident = !{!1}

!0 = !{i32 1, !"wchar_size", i32 4}
!1 = !{!"clang version 10.0.0-4ubuntu1 "}
